; Function Attrs: mustprogress uwtable
define noundef i32 @_ZN29colvarbias_restraint_k_moving16set_state_paramsERKNSt7__cxx1112basic_stringIcSt11char_traitsIcESaIcEEE(ptr noundef nonnull align 8 dereferenceable(56) %0, ptr noundef nonnull align 8 dereferenceable(32) %1) unnamed_addr #4 align 2 {
  %3 = load ptr, ptr %0, align 8
  %4 = getelementptr i8, ptr %3, i64 -160
  %5 = load i64, ptr %4, align 8
  %6 = getelementptr inbounds i8, ptr %0, i64 %5
  %7 = load ptr, ptr %6, align 8
  %8 = getelementptr i8, ptr %7, i64 -24
  %9 = load i64, ptr %8, align 8
  %10 = getelementptr inbounds i8, ptr %6, i64 %9
  %11 = tail call noundef i32 @_ZN10colvarbias16set_state_paramsERKNSt7__cxx1112basic_stringIcSt11char_traitsIcESaIcEEE(ptr noundef nonnull align 8 dereferenceable(312) %10, ptr noundef nonnull align 8 dereferenceable(32) %1)
  %12 = load ptr, ptr %0, align 8
  %13 = getelementptr i8, ptr %12, i64 -168
  %14 = load i64, ptr %13, align 8
  %15 = getelementptr inbounds i8, ptr %0, i64 %14
  %16 = getelementptr inbounds i8, ptr %15, i64 9
  %17 = load i8, ptr %16, align 1
  %18 = trunc i8 %17 to i1
  br i1 %18, label %19, label %28

19:                                               ; preds = %2
  %20 = getelementptr i8, ptr %12, i64 -32
  %21 = load i64, ptr %20, align 8
  %22 = getelementptr inbounds i8, ptr %0, i64 %21
  %23 = getelementptr i8, ptr %12, i64 -152
  %24 = load i64, ptr %23, align 8
  %25 = getelementptr inbounds i8, ptr %0, i64 %24
  %26 = getelementptr inbounds i8, ptr %25, i64 8
  %27 = tail call noundef zeroext i1 @_ZN11colvarparse10get_keyvalERKNSt7__cxx1112basic_stringIcSt11char_traitsIcESaIcEEEPKcRdRKdNS_10Parse_ModeE(ptr noundef nonnull align 8 dereferenceable(320) %22, ptr noundef nonnull align 8 dereferenceable(32) %1, ptr noundef nonnull @.str.15, ptr noundef nonnull align 8 dereferenceable(8) %26, ptr noundef nonnull align 8 dereferenceable(8) %26, i32 noundef 327680)
  %.pre = load ptr, ptr %0, align 8
  br label %28

28:                                               ; preds = %19, %2
  %29 = phi ptr [ %.pre, %19 ], [ %12, %2 ]
  %30 = getelementptr i8, ptr %29, i64 -40
  %31 = load i64, ptr %30, align 8
  %32 = getelementptr inbounds i8, ptr %0, i64 %31
  %33 = getelementptr inbounds i8, ptr %32, i64 48
  %34 = load ptr, ptr %33, align 8
  %35 = getelementptr inbounds i8, ptr %34, i64 193
  %36 = load i8, ptr %35, align 1
  %37 = trunc i8 %36 to i1
  br i1 %37, label %38, label %47

38:                                               ; preds = %28
  %39 = getelementptr i8, ptr %29, i64 -32
  %40 = load i64, ptr %39, align 8
  %41 = getelementptr inbounds i8, ptr %0, i64 %40
  %42 = getelementptr i8, ptr %29, i64 -168
  %43 = load i64, ptr %42, align 8
  %44 = getelementptr inbounds i8, ptr %0, i64 %43
  %45 = getelementptr inbounds i8, ptr %44, i64 64
  %46 = tail call noundef zeroext i1 @_ZN11colvarparse10get_keyvalERKNSt7__cxx1112basic_stringIcSt11char_traitsIcESaIcEEEPKcRdRKdNS_10Parse_ModeE(ptr noundef nonnull align 8 dereferenceable(320) %41, ptr noundef nonnull align 8 dereferenceable(32) %1, ptr noundef nonnull @.str.46, ptr noundef nonnull align 8 dereferenceable(8) %45, ptr noundef nonnull align 8 dereferenceable(8) %45, i32 noundef 327680)
  br label %47

47:                                               ; preds = %38, %28
  ret i32 0
}